target datalayout = "e-m:e-p270:32:32-p271:32:32-p272:64:64-i64:64-i128:128-f80:128-n8:16:32:64-S128"
target triple = "x86_64-pc-linux-gnu"

%struct.AC3HeaderInfo = type { i16, i16, i8, i8, i8, i8, i8, i8, i32, i32, i32, i16, i32, i32, i8, i16, i32, i8, i16, i64, i8 }
%struct.GetBitContext = type { ptr, ptr, i32, i32, i32 }
%union.anon = type { i64, [64 x i8] }

; Function Attrs: alwaysinline nounwind willreturn memory(none) uwtable
define internal i32 @av_bswap32(i32 noundef %0) #6 {
  %2 = alloca i32, align 4
  store i32 %0, ptr %2, align 4, !tbaa !9
  %3 = load i32, ptr %2, align 4, !tbaa !9
  %4 = shl i32 %3, 8
  %5 = and i32 %4, 65280
  %6 = load i32, ptr %2, align 4, !tbaa !9
  %7 = lshr i32 %6, 8
  %8 = and i32 %7, 255
  %9 = or i32 %5, %8
  %10 = shl i32 %9, 16
  %11 = load i32, ptr %2, align 4, !tbaa !9
  %12 = lshr i32 %11, 16
  %13 = shl i32 %12, 8
  %14 = and i32 %13, 65280
  %15 = load i32, ptr %2, align 4, !tbaa !9
  %16 = lshr i32 %15, 16
  %17 = lshr i32 %16, 8
  %18 = and i32 %17, 255
  %19 = or i32 %14, %18
  %20 = or i32 %10, %19
  ret i32 %20
}

; Function Attrs: inlinehint nounwind uwtable
define internal i32 @init_get_bits(ptr noundef %0, ptr noundef %1, i32 noundef %2) #3 {
  %4 = alloca ptr, align 8
  %5 = alloca ptr, align 8
  %6 = alloca i32, align 4
  %7 = alloca i32, align 4
  %8 = alloca i32, align 4
  store ptr %0, ptr %4, align 8, !tbaa !14
  store ptr %1, ptr %5, align 8, !tbaa !4
  store i32 %2, ptr %6, align 4, !tbaa !9
  call void @llvm.lifetime.start.p0(i64 4, ptr %7) #9
  call void @llvm.lifetime.start.p0(i64 4, ptr %8) #9
  store i32 0, ptr %8, align 4, !tbaa !9
  %9 = load i32, ptr %6, align 4, !tbaa !9
  %10 = icmp sge i32 %9, 2147483135
  br i1 %10, label %17, label %11

11:                                               ; preds = %3
  %12 = load i32, ptr %6, align 4, !tbaa !9
  %13 = icmp slt i32 %12, 0
  br i1 %13, label %17, label %14

14:                                               ; preds = %11
  %15 = load ptr, ptr %5, align 8, !tbaa !4
  %16 = icmp ne ptr %15, null
  br i1 %16, label %18, label %17

17:                                               ; preds = %14, %11, %3
  store i32 0, ptr %6, align 4, !tbaa !9
  store ptr null, ptr %5, align 8, !tbaa !4
  store i32 -1094995529, ptr %8, align 4, !tbaa !9
  br label %18

18:                                               ; preds = %17, %14
  %19 = load i32, ptr %6, align 4, !tbaa !9
  %20 = add nsw i32 %19, 7
  %21 = ashr i32 %20, 3
  store i32 %21, ptr %7, align 4, !tbaa !9
  %22 = load ptr, ptr %5, align 8, !tbaa !4
  %23 = load ptr, ptr %4, align 8, !tbaa !14
  %24 = getelementptr inbounds nuw %struct.GetBitContext, ptr %23, i32 0, i32 0
  store ptr %22, ptr %24, align 8, !tbaa !45
  %25 = load i32, ptr %6, align 4, !tbaa !9
  %26 = load ptr, ptr %4, align 8, !tbaa !14
  %27 = getelementptr inbounds nuw %struct.GetBitContext, ptr %26, i32 0, i32 3
  store i32 %25, ptr %27, align 4, !tbaa !66
  %28 = load i32, ptr %6, align 4, !tbaa !9
  %29 = add nsw i32 %28, 8
  %30 = load ptr, ptr %4, align 8, !tbaa !14
  %31 = getelementptr inbounds nuw %struct.GetBitContext, ptr %30, i32 0, i32 4
  store i32 %29, ptr %31, align 8, !tbaa !44
  %32 = load ptr, ptr %5, align 8, !tbaa !4
  %33 = load i32, ptr %7, align 4, !tbaa !9
  %34 = sext i32 %33 to i64
  %35 = getelementptr inbounds i8, ptr %32, i64 %34
  %36 = load ptr, ptr %4, align 8, !tbaa !14
  %37 = getelementptr inbounds nuw %struct.GetBitContext, ptr %36, i32 0, i32 1
  store ptr %35, ptr %37, align 8, !tbaa !67
  %38 = load ptr, ptr %4, align 8, !tbaa !14
  %39 = getelementptr inbounds nuw %struct.GetBitContext, ptr %38, i32 0, i32 2
  store i32 0, ptr %39, align 8, !tbaa !42
  %40 = load i32, ptr %8, align 4, !tbaa !9
  call void @llvm.lifetime.end.p0(i64 4, ptr %8) #9
  call void @llvm.lifetime.end.p0(i64 4, ptr %7) #9
  ret i32 %40
}

; Function Attrs: inlinehint nounwind willreturn memory(none) uwtable
define internal i64 @av_bswap64(i64 noundef %0) #8 {
  %2 = alloca i64, align 8
  store i64 %0, ptr %2, align 8, !tbaa !50
  %3 = load i64, ptr %2, align 8, !tbaa !50
  %4 = trunc i64 %3 to i32
  %5 = call i32 @av_bswap32(i32 noundef %4) #10
  %6 = zext i32 %5 to i64
  %7 = shl i64 %6, 32
  %8 = load i64, ptr %2, align 8, !tbaa !50
  %9 = lshr i64 %8, 32
  %10 = trunc i64 %9 to i32
  %11 = call i32 @av_bswap32(i32 noundef %10) #10
  %12 = zext i32 %11 to i64
  %13 = or i64 %7, %12
  ret i64 %13
}

; Function Attrs: nounwind uwtable
define internal i32 @ac3_sync(i64 noundef %0, ptr noundef %1, ptr noundef %2) #0 {
  %4 = alloca i32, align 4
  %5 = alloca i64, align 8
  %6 = alloca ptr, align 8
  %7 = alloca ptr, align 8
  %8 = alloca i32, align 4
  %9 = alloca %union.anon, align 8
  %10 = alloca %struct.AC3HeaderInfo, align 8
  %11 = alloca %struct.GetBitContext, align 8
  %12 = alloca i8, align 1
  %13 = alloca i8, align 1
  %14 = alloca i8, align 1
  %15 = alloca i32, align 4
  store i64 %0, ptr %5, align 8, !tbaa !50
  store ptr %1, ptr %6, align 8, !tbaa !68
  store ptr %2, ptr %7, align 8, !tbaa !68
  call void @llvm.lifetime.start.p0(i64 4, ptr %8) #9
  call void @llvm.lifetime.start.p0(i64 72, ptr %9) #9
  call void @llvm.memset.p0.i64(ptr align 8 %9, i8 0, i64 72, i1 false)
  %16 = load i64, ptr %5, align 8, !tbaa !50
  %17 = call i64 @av_bswap64(i64 noundef %16) #10
  store i64 %17, ptr %9, align 8, !tbaa !11
  call void @llvm.lifetime.start.p0(i64 64, ptr %10) #9
  call void @llvm.lifetime.start.p0(i64 32, ptr %11) #9
  %18 = getelementptr inbounds [72 x i8], ptr %9, i64 0, i64 1
  %19 = load i8, ptr %18, align 1, !tbaa !11
  %20 = zext i8 %19 to i32
  %21 = icmp eq i32 %20, 119
  br i1 %21, label %22, label %58

22:                                               ; preds = %3
  %23 = getelementptr inbounds [72 x i8], ptr %9, i64 0, i64 2
  %24 = load i8, ptr %23, align 2, !tbaa !11
  %25 = zext i8 %24 to i32
  %26 = icmp eq i32 %25, 11
  br i1 %26, label %27, label %58

27:                                               ; preds = %22
  br label %28

28:                                               ; preds = %27
  call void @llvm.lifetime.start.p0(i64 1, ptr %12) #9
  %29 = getelementptr inbounds [72 x i8], ptr %9, i64 0, i64 2
  %30 = load i8, ptr %29, align 2, !tbaa !11
  store i8 %30, ptr %12, align 1, !tbaa !11
  %31 = getelementptr inbounds [72 x i8], ptr %9, i64 0, i64 1
  %32 = load i8, ptr %31, align 1, !tbaa !11
  %33 = getelementptr inbounds [72 x i8], ptr %9, i64 0, i64 2
  store i8 %32, ptr %33, align 2, !tbaa !11
  %34 = load i8, ptr %12, align 1, !tbaa !11
  %35 = getelementptr inbounds [72 x i8], ptr %9, i64 0, i64 1
  store i8 %34, ptr %35, align 1, !tbaa !11
  call void @llvm.lifetime.end.p0(i64 1, ptr %12) #9
  br label %36

36:                                               ; preds = %28
  br label %37

37:                                               ; preds = %36
  br label %38

38:                                               ; preds = %37
  call void @llvm.lifetime.start.p0(i64 1, ptr %13) #9
  %39 = getelementptr inbounds [72 x i8], ptr %9, i64 0, i64 4
  %40 = load i8, ptr %39, align 4, !tbaa !11
  store i8 %40, ptr %13, align 1, !tbaa !11
  %41 = getelementptr inbounds [72 x i8], ptr %9, i64 0, i64 3
  %42 = load i8, ptr %41, align 1, !tbaa !11
  %43 = getelementptr inbounds [72 x i8], ptr %9, i64 0, i64 4
  store i8 %42, ptr %43, align 4, !tbaa !11
  %44 = load i8, ptr %13, align 1, !tbaa !11
  %45 = getelementptr inbounds [72 x i8], ptr %9, i64 0, i64 3
  store i8 %44, ptr %45, align 1, !tbaa !11
  call void @llvm.lifetime.end.p0(i64 1, ptr %13) #9
  br label %46

46:                                               ; preds = %38
  br label %47

47:                                               ; preds = %46
  br label %48

48:                                               ; preds = %47
  call void @llvm.lifetime.start.p0(i64 1, ptr %14) #9
  %49 = getelementptr inbounds [72 x i8], ptr %9, i64 0, i64 6
  %50 = load i8, ptr %49, align 2, !tbaa !11
  store i8 %50, ptr %14, align 1, !tbaa !11
  %51 = getelementptr inbounds [72 x i8], ptr %9, i64 0, i64 5
  %52 = load i8, ptr %51, align 1, !tbaa !11
  %53 = getelementptr inbounds [72 x i8], ptr %9, i64 0, i64 6
  store i8 %52, ptr %53, align 2, !tbaa !11
  %54 = load i8, ptr %14, align 1, !tbaa !11
  %55 = getelementptr inbounds [72 x i8], ptr %9, i64 0, i64 5
  store i8 %54, ptr %55, align 1, !tbaa !11
  call void @llvm.lifetime.end.p0(i64 1, ptr %14) #9
  br label %56

56:                                               ; preds = %48
  br label %57

57:                                               ; preds = %56
  br label %58

58:                                               ; preds = %57, %22, %3
  %59 = getelementptr inbounds [72 x i8], ptr %9, i64 0, i64 0
  %60 = getelementptr inbounds i8, ptr %59, i64 8
  %61 = getelementptr inbounds i8, ptr %60, i64 -7
  %62 = call i32 @init_get_bits(ptr noundef %11, ptr noundef %61, i32 noundef 54)
  %63 = call i32 @ff_ac3_parse_header(ptr noundef %11, ptr noundef %10)
  store i32 %63, ptr %8, align 4, !tbaa !9
  %64 = load i32, ptr %8, align 4, !tbaa !9
  %65 = icmp slt i32 %64, 0
  br i1 %65, label %66, label %67

66:                                               ; preds = %58
  store i32 0, ptr %4, align 4
  store i32 1, ptr %15, align 4
  br label %89

67:                                               ; preds = %58
  %68 = getelementptr inbounds nuw %struct.AC3HeaderInfo, ptr %10, i32 0, i32 7
  %69 = load i8, ptr %68, align 1, !tbaa !39
  %70 = zext i8 %69 to i32
  %71 = icmp ne i32 %70, 1
  %72 = zext i1 %71 to i32
  %73 = load ptr, ptr %7, align 8, !tbaa !68
  store i32 %72, ptr %73, align 4, !tbaa !9
  %74 = load ptr, ptr %7, align 8, !tbaa !68
  %75 = load i32, ptr %74, align 4, !tbaa !9
  %76 = icmp ne i32 %75, 0
  br i1 %76, label %82, label %77

77:                                               ; preds = %67
  %78 = getelementptr inbounds nuw %struct.AC3HeaderInfo, ptr %10, i32 0, i32 7
  %79 = load i8, ptr %78, align 1, !tbaa !39
  %80 = zext i8 %79 to i32
  %81 = icmp ne i32 %80, 2
  br label %82

82:                                               ; preds = %77, %67
  %83 = phi i1 [ true, %67 ], [ %81, %77 ]
  %84 = zext i1 %83 to i32
  %85 = load ptr, ptr %6, align 8, !tbaa !68
  store i32 %84, ptr %85, align 4, !tbaa !9
  %86 = getelementptr inbounds nuw %struct.AC3HeaderInfo, ptr %10, i32 0, i32 18
  %87 = load i16, ptr %86, align 2, !tbaa !38
  %88 = zext i16 %87 to i32
  store i32 %88, ptr %4, align 4
  store i32 1, ptr %15, align 4
  br label %89

89:                                               ; preds = %82, %66
  call void @llvm.lifetime.end.p0(i64 32, ptr %11) #9
  call void @llvm.lifetime.end.p0(i64 64, ptr %10) #9
  call void @llvm.lifetime.end.p0(i64 72, ptr %9) #9
  call void @llvm.lifetime.end.p0(i64 4, ptr %8) #9
  %90 = load i32, ptr %4, align 4
  ret i32 %90
}