; Function Attrs: mustprogress nofree norecurse nosync nounwind willreturn memory(read, argmem: readwrite, inaccessiblemem: none) uwtable
define internal range(i32 0, 65536) i32 @ac3_sync(i64 noundef %0, ptr noundef writeonly captures(none) %1, ptr noundef writeonly captures(none) %2) #2 {
  %4 = alloca %union.anon, align 8
  %5 = alloca %struct.AC3HeaderInfo, align 8
  %6 = alloca %struct.GetBitContext, align 8
  call void @llvm.lifetime.start.p0(i64 72, ptr nonnull %4) #8
  %7 = getelementptr inbounds nuw i8, ptr %4, i64 8
  call void @llvm.memset.p0.i64(ptr noundef nonnull align 8 dereferenceable(64) %7, i8 0, i64 64, i1 false)
  %8 = tail call noundef i64 @llvm.bswap.i64(i64 %0)
  store i64 %8, ptr %4, align 8, !tbaa !4
  call void @llvm.lifetime.start.p0(i64 64, ptr nonnull %5) #8
  call void @llvm.lifetime.start.p0(i64 32, ptr nonnull %6) #8
  %9 = getelementptr inbounds nuw i8, ptr %4, i64 1
  %10 = and i64 %8, 16776960
  %or.cond = icmp eq i64 %10, 751360
  br i1 %or.cond, label %11, label %25

11:                                               ; preds = %3
  %12 = lshr i64 %8, 40
  %13 = trunc i64 %12 to i8
  %14 = lshr i64 %8, 48
  %15 = trunc i64 %14 to i8
  %16 = lshr i64 %8, 24
  %17 = trunc i64 %16 to i8
  %18 = lshr i64 %8, 32
  %19 = trunc i64 %18 to i8
  %20 = getelementptr inbounds nuw i8, ptr %4, i64 2
  store i8 119, ptr %20, align 2, !tbaa !4
  store i8 11, ptr %9, align 1, !tbaa !4
  %21 = getelementptr inbounds nuw i8, ptr %4, i64 4
  %22 = getelementptr inbounds nuw i8, ptr %4, i64 3
  store i8 %17, ptr %21, align 4, !tbaa !4
  store i8 %19, ptr %22, align 1, !tbaa !4
  %23 = getelementptr inbounds nuw i8, ptr %4, i64 6
  %24 = getelementptr inbounds nuw i8, ptr %4, i64 5
  store i8 %13, ptr %23, align 2, !tbaa !4
  store i8 %15, ptr %24, align 1, !tbaa !4
  br label %25

25:                                               ; preds = %11, %3
  store ptr %9, ptr %6, align 8, !tbaa !15
  %26 = getelementptr inbounds nuw i8, ptr %6, i64 20
  store i32 54, ptr %26, align 4, !tbaa !43
  %27 = getelementptr inbounds nuw i8, ptr %6, i64 24
  store i32 62, ptr %27, align 8, !tbaa !14
  %28 = getelementptr inbounds nuw i8, ptr %4, i64 8
  %29 = getelementptr inbounds nuw i8, ptr %6, i64 8
  store ptr %28, ptr %29, align 8, !tbaa !44
  %30 = getelementptr inbounds nuw i8, ptr %6, i64 16
  store i32 0, ptr %30, align 8, !tbaa !9
  %31 = call i32 @ff_ac3_parse_header(ptr noundef nonnull %6, ptr noundef nonnull %5)
  %32 = icmp slt i32 %31, 0
  br i1 %32, label %41, label %33

33:                                               ; preds = %25
  %34 = getelementptr inbounds nuw i8, ptr %5, i64 9
  %35 = load i8, ptr %34, align 1, !tbaa !38
  %36 = icmp ne i8 %35, 1
  %37 = zext i1 %36 to i32
  store i32 %37, ptr %2, align 4, !tbaa !32
  store i32 1, ptr %1, align 4, !tbaa !32
  %38 = getelementptr inbounds nuw i8, ptr %5, i64 46
  %39 = load i16, ptr %38, align 2, !tbaa !37
  %40 = zext i16 %39 to i32
  br label %41

41:                                               ; preds = %25, %33
  %.0 = phi i32 [ %40, %33 ], [ 0, %25 ]
  call void @llvm.lifetime.end.p0(i64 32, ptr nonnull %6) #8
  call void @llvm.lifetime.end.p0(i64 64, ptr nonnull %5) #8
  call void @llvm.lifetime.end.p0(i64 72, ptr nonnull %4) #8
  ret i32 %.0
}